target datalayout = "e-m:e-p270:32:32-p271:32:32-p272:64:64-i64:64-i128:128-f80:128-n8:16:32:64-S128"
target triple = "x86_64-pc-linux-gnu"

%struct.H5HL_t = type { i64, i64, i64, i64, i8, ptr, ptr, i64, i64, i64, ptr, i64, i64, ptr }
%struct.H5HL_prfx_t = type { %struct.H5C_cache_entry_t, ptr }
%struct.H5C_cache_entry_t = type { ptr, i64, i64, ptr, i8, ptr, i8, i8, i8, i8, i32, i8, i8, i8, i8, i8, i32, ptr, i32, i32, i32, i32, i32, i8, i8, ptr, ptr, ptr, ptr, ptr, ptr, i8, i32, i8, i64, ptr, i64, i64, i32, i8, i32, i32, i8, ptr, ptr, ptr }

@H5HL_init_g = external global i8, align 1
@H5_libterm_g = external global i8, align 1

; Function Attrs: nounwind uwtable
define internal i32 @H5HL__cache_prefix_image_len(ptr noundef %0, ptr noundef %1) #0 {
  %3 = alloca ptr, align 8
  %4 = alloca ptr, align 8
  %5 = alloca ptr, align 8
  store ptr %0, ptr %3, align 8, !tbaa !3
  store ptr %1, ptr %4, align 8, !tbaa !7
  call void @llvm.lifetime.start.p0(i64 8, ptr %5) #7
  %6 = load ptr, ptr %3, align 8, !tbaa !3
  store ptr %6, ptr %5, align 8, !tbaa !33
  %7 = load i8, ptr @H5HL_init_g, align 1, !tbaa !9, !range !11, !noundef !12
  %8 = trunc i8 %7 to i1
  br i1 %8, label %13, label %9

9:                                                ; preds = %2
  %10 = load i8, ptr @H5_libterm_g, align 1, !tbaa !9, !range !11, !noundef !12
  %11 = trunc i8 %10 to i1
  %12 = xor i1 %11, true
  br label %13

13:                                               ; preds = %9, %2
  %14 = phi i1 [ true, %2 ], [ %12, %9 ]
  %15 = xor i1 %14, true
  %16 = xor i1 %15, true
  %17 = zext i1 %16 to i32
  %18 = sext i32 %17 to i64
  %19 = call i64 @llvm.expect.i64(i64 %18, i64 1)
  %20 = icmp ne i64 %19, 0
  br i1 %20, label %21, label %44

21:                                               ; preds = %13
  %22 = load ptr, ptr %5, align 8, !tbaa !33
  %23 = getelementptr inbounds nuw %struct.H5HL_prfx_t, ptr %22, i32 0, i32 1
  %24 = load ptr, ptr %23, align 8, !tbaa !40
  %25 = getelementptr inbounds nuw %struct.H5HL_t, ptr %24, i32 0, i32 8
  %26 = load i64, ptr %25, align 8, !tbaa !21
  %27 = load ptr, ptr %4, align 8, !tbaa !7
  store i64 %26, ptr %27, align 8, !tbaa !13
  %28 = load ptr, ptr %5, align 8, !tbaa !33
  %29 = getelementptr inbounds nuw %struct.H5HL_prfx_t, ptr %28, i32 0, i32 1
  %30 = load ptr, ptr %29, align 8, !tbaa !40
  %31 = getelementptr inbounds nuw %struct.H5HL_t, ptr %30, i32 0, i32 4
  %32 = load i8, ptr %31, align 8, !tbaa !38, !range !11, !noundef !12
  %33 = trunc i8 %32 to i1
  br i1 %33, label %34, label %43

34:                                               ; preds = %21
  %35 = load ptr, ptr %5, align 8, !tbaa !33
  %36 = getelementptr inbounds nuw %struct.H5HL_prfx_t, ptr %35, i32 0, i32 1
  %37 = load ptr, ptr %36, align 8, !tbaa !40
  %38 = getelementptr inbounds nuw %struct.H5HL_t, ptr %37, i32 0, i32 12
  %39 = load i64, ptr %38, align 8, !tbaa !26
  %40 = load ptr, ptr %4, align 8, !tbaa !7
  %41 = load i64, ptr %40, align 8, !tbaa !13
  %42 = add i64 %41, %39
  store i64 %42, ptr %40, align 8, !tbaa !13
  br label %43

43:                                               ; preds = %34, %21
  br label %44

44:                                               ; preds = %43, %13
  call void @llvm.lifetime.end.p0(i64 8, ptr %5) #7
  ret i32 0
}