; Function Attrs: mustprogress nofree norecurse nosync nounwind willreturn memory(read, argmem: readwrite, inaccessiblemem: none) uwtable
define internal noundef i32 @H5HL__cache_prefix_image_len(ptr noundef readonly captures(none) %0, ptr noundef writeonly captures(none) %1) #2 {
  %3 = load i8, ptr @H5HL_init_g, align 1, !tbaa !3, !range !7, !noundef !8
  %4 = trunc nuw i8 %3 to i1
  %5 = load i8, ptr @H5_libterm_g, align 1, !range !7
  %6 = trunc nuw i8 %5 to i1
  %7 = xor i1 %6, true
  %8 = select i1 %4, i1 true, i1 %7
  br i1 %8, label %9, label %21, !prof !9

9:                                                ; preds = %2
  %10 = getelementptr inbounds nuw i8, ptr %0, i64 248
  %11 = load ptr, ptr %10, align 8, !tbaa !28
  %12 = getelementptr inbounds nuw i8, ptr %11, i64 64
  %13 = load i64, ptr %12, align 8, !tbaa !12
  store i64 %13, ptr %1, align 8, !tbaa !10
  %14 = getelementptr inbounds nuw i8, ptr %11, i64 32
  %15 = load i8, ptr %14, align 8, !tbaa !26, !range !7, !noundef !8
  %16 = trunc nuw i8 %15 to i1
  br i1 %16, label %17, label %21

17:                                               ; preds = %9
  %18 = getelementptr inbounds nuw i8, ptr %11, i64 96
  %19 = load i64, ptr %18, align 8, !tbaa !19
  %20 = add i64 %19, %13
  store i64 %20, ptr %1, align 8, !tbaa !10
  br label %21

21:                                               ; preds = %9, %17, %2
  ret i32 0
}